; Function Attrs: nounwind uwtable
define hidden void @je_arena_basic_stats_merge(ptr noundef readnone captures(none) %0, ptr noundef %1, ptr noundef captures(none) %2, ptr noundef writeonly captures(none) initializes((0, 8)) %3, ptr noundef writeonly captures(none) initializes((0, 8)) %4, ptr noundef writeonly captures(none) initializes((0, 8)) %5, ptr noundef %6, ptr noundef %7, ptr noundef %8) local_unnamed_addr #0 {
  %10 = load atomic i32, ptr %1 monotonic, align 4
  %11 = load i32, ptr %2, align 4, !tbaa !4
  %12 = add i32 %11, %10
  store i32 %12, ptr %2, align 4, !tbaa !4
  %13 = getelementptr inbounds nuw i8, ptr %1, i64 10520
  %14 = load atomic i32, ptr %13 acquire, align 4
  %15 = zext i32 %14 to i64
  %16 = getelementptr inbounds nuw [0 x ptr], ptr @je_dss_prec_names, i64 0, i64 %15
  %17 = load ptr, ptr %16, align 8, !tbaa !8
  store ptr %17, ptr %3, align 8, !tbaa !8
  %18 = getelementptr inbounds nuw i8, ptr %1, i64 10648
  %19 = tail call i64 @je_pa_decay_ms_get(ptr noundef nonnull %18, i32 noundef 1) #16
  store i64 %19, ptr %4, align 8, !tbaa !11
  %20 = tail call i64 @je_pa_decay_ms_get(ptr noundef nonnull %18, i32 noundef 2) #16
  store i64 %20, ptr %5, align 8, !tbaa !11
  tail call void @je_pa_shard_basic_stats_merge(ptr noundef nonnull %18, ptr noundef %6, ptr noundef %7, ptr noundef %8) #16
  ret void
}